; Function Attrs: mustprogress nofree norecurse nosync nounwind memory(readwrite, inaccessiblemem: none) uwtable
define internal fastcc void @_ZN4ncnnL18crop_pack16_avx512ERKNS_3MatERS0_ii(ptr nocapture noundef nonnull readonly align 8 dereferenceable(72) %0, ptr nocapture noundef nonnull readonly align 8 dereferenceable(72) %1, i32 noundef %2, i32 noundef %3) unnamed_addr #3 {
  %5 = getelementptr inbounds nuw i8, ptr %1, i64 44
  %6 = load i32, ptr %5, align 4
  %7 = getelementptr inbounds nuw i8, ptr %1, i64 48
  %8 = load i32, ptr %7, align 8
  %9 = icmp sgt i32 %8, 0
  br i1 %9, label %.preheader.lr.ph, label %._crit_edge39

.preheader.lr.ph:                                 ; preds = %4
  %10 = getelementptr inbounds nuw i8, ptr %0, i64 44
  %11 = load i32, ptr %10, align 4
  %12 = sub nsw i32 %11, %6
  %13 = icmp sgt i32 %6, 0
  %14 = shl nsw i32 %12, 4
  %15 = sext i32 %14 to i64
  br i1 %13, label %.preheader.us.preheader, label %._crit_edge39

.preheader.us.preheader:                          ; preds = %.preheader.lr.ph
  %16 = load ptr, ptr %0, align 8
  %17 = sext i32 %11 to i64
  %18 = sext i32 %2 to i64
  %19 = mul nsw i64 %17, %18
  %20 = getelementptr inbounds nuw i8, ptr %0, i64 16
  %21 = load i64, ptr %20, align 8
  %22 = mul i64 %19, %21
  %23 = getelementptr inbounds i8, ptr %16, i64 %22
  %24 = shl nsw i32 %3, 4
  %25 = sext i32 %24 to i64
  %26 = getelementptr inbounds float, ptr %23, i64 %25
  %27 = load ptr, ptr %1, align 8
  br label %.preheader.us

.preheader.us:                                    ; preds = %.preheader.us.preheader, %._crit_edge.us
  %.038.us = phi ptr [ %33, %._crit_edge.us ], [ %26, %.preheader.us.preheader ]
  %.02937.us = phi i32 [ %34, %._crit_edge.us ], [ 0, %.preheader.us.preheader ]
  %.03036.us = phi ptr [ %31, %._crit_edge.us ], [ %27, %.preheader.us.preheader ]
  br label %28

28:                                               ; preds = %.preheader.us, %28
  %.134.us = phi ptr [ %.038.us, %.preheader.us ], [ %30, %28 ]
  %.02833.us = phi i32 [ 0, %.preheader.us ], [ %32, %28 ]
  %.13132.us = phi ptr [ %.03036.us, %.preheader.us ], [ %31, %28 ]
  %29 = load <16 x float>, ptr %.134.us, align 1
  store <16 x float> %29, ptr %.13132.us, align 1
  %30 = getelementptr inbounds i8, ptr %.134.us, i64 64
  %31 = getelementptr inbounds i8, ptr %.13132.us, i64 64
  %32 = add nuw nsw i32 %.02833.us, 1
  %exitcond.not = icmp eq i32 %32, %6
  br i1 %exitcond.not, label %._crit_edge.us, label %28, !llvm.loop !7

._crit_edge.us:                                   ; preds = %28
  %33 = getelementptr inbounds float, ptr %30, i64 %15
  %34 = add nuw nsw i32 %.02937.us, 1
  %exitcond42.not = icmp eq i32 %34, %8
  br i1 %exitcond42.not, label %._crit_edge39, label %.preheader.us, !llvm.loop !9

._crit_edge39:                                    ; preds = %._crit_edge.us, %.preheader.lr.ph, %4
  ret void
}